target datalayout = "e-m:e-p270:32:32-p271:32:32-p272:64:64-i64:64-i128:128-f80:128-n8:16:32:64-S128"
target triple = "x86_64-pc-linux-gnu"

%"class.std::__1::locale::facet" = type { %"class.std::__1::__shared_count" }
%"class.std::__1::__shared_count" = type { ptr, i64 }
%"class.std::__1::ctype_byname.53" = type { %"class.std::__1::ctype.9", ptr }
%"class.std::__1::ctype.9" = type { %"class.std::__1::locale::facet" }

; Function Attrs: inlinehint mustprogress nounwind uwtable
define linkonce_odr hidden noundef i32 @_ZNSt3__18__locale10__towlowerB8ne210000EjP15__locale_struct(i32 noundef %0, ptr noundef %1) #4 comdat {
  %3 = alloca i32, align 4
  %4 = alloca ptr, align 8
  store i32 %0, ptr %3, align 4, !tbaa !41
  store ptr %1, ptr %4, align 8, !tbaa !102
  %5 = load i32, ptr %3, align 4, !tbaa !41
  %6 = load ptr, ptr %4, align 8, !tbaa !102
  %7 = call i32 @towlower_l(i32 noundef %5, ptr noundef %6) #13
  ret i32 %7
}

; Function Attrs: mustprogress uwtable
define dso_local noundef ptr @_ZNKSt3__112ctype_bynameIwE10do_tolowerEPwPKw(ptr noundef nonnull align 8 dereferenceable(24) %0, ptr noundef %1, ptr noundef %2) unnamed_addr #2 align 2 {
  %4 = alloca ptr, align 8
  %5 = alloca ptr, align 8
  %6 = alloca ptr, align 8
  store ptr %0, ptr %4, align 8, !tbaa !398
  store ptr %1, ptr %5, align 8, !tbaa !21
  store ptr %2, ptr %6, align 8, !tbaa !21
  %7 = load ptr, ptr %4, align 8
  br label %8

8:                                                ; preds = %19, %3
  %9 = load ptr, ptr %5, align 8, !tbaa !21
  %10 = load ptr, ptr %6, align 8, !tbaa !21
  %11 = icmp ne ptr %9, %10
  br i1 %11, label %12, label %22

12:                                               ; preds = %8
  %13 = load ptr, ptr %5, align 8, !tbaa !21
  %14 = load i32, ptr %13, align 4, !tbaa !23
  %15 = getelementptr inbounds nuw %"class.std::__1::ctype_byname.53", ptr %7, i32 0, i32 1
  %16 = load ptr, ptr %15, align 8, !tbaa !470
  %17 = call noundef i32 @_ZNSt3__18__locale10__towlowerB8ne210000EjP15__locale_struct(i32 noundef %14, ptr noundef %16)
  %18 = load ptr, ptr %5, align 8, !tbaa !21
  store i32 %17, ptr %18, align 4, !tbaa !23
  br label %19

19:                                               ; preds = %12
  %20 = load ptr, ptr %5, align 8, !tbaa !21
  %21 = getelementptr inbounds nuw i32, ptr %20, i32 1
  store ptr %21, ptr %5, align 8, !tbaa !21
  br label %8, !llvm.loop !477

22:                                               ; preds = %8
  %23 = load ptr, ptr %5, align 8, !tbaa !21
  ret ptr %23
}