; Function Attrs: mustprogress nounwind uwtable
define dso_local noundef ptr @_ZNKSt3__112ctype_bynameIwE10do_tolowerEPwPKw(ptr noundef nonnull readonly align 8 captures(none) dereferenceable(24) %0, ptr noundef captures(address, ret: address, provenance) %1, ptr noundef readnone captures(address) %2) unnamed_addr #0 align 2 {
  %.not7 = icmp eq ptr %1, %2
  br i1 %.not7, label %._crit_edge, label %.lr.ph

.lr.ph:                                           ; preds = %3
  %4 = getelementptr inbounds nuw i8, ptr %0, i64 16
  br label %5

5:                                                ; preds = %.lr.ph, %5
  %.08 = phi ptr [ %1, %.lr.ph ], [ %9, %5 ]
  %6 = load i32, ptr %.08, align 4, !tbaa !10
  %7 = load ptr, ptr %4, align 8, !tbaa !398
  %8 = tail call noundef i32 @towlower_l(i32 noundef %6, ptr noundef %7) #45
  store i32 %8, ptr %.08, align 4, !tbaa !10
  %9 = getelementptr inbounds nuw i8, ptr %.08, i64 4
  %.not = icmp eq ptr %9, %2
  br i1 %.not, label %._crit_edge, label %5, !llvm.loop !405

._crit_edge:                                      ; preds = %5, %3
  %.0.lcssa = phi ptr [ %1, %3 ], [ %9, %5 ]
  ret ptr %.0.lcssa
}